target datalayout = "e-m:e-p270:32:32-p271:32:32-p272:64:64-i64:64-i128:128-f80:128-n8:16:32:64-S128"
target triple = "x86_64-pc-linux-gnu"

%"class.google::protobuf::StringPiece" = type { ptr, i64 }

; Function Attrs: mustprogress nounwind uwtable
define noundef i64 @_ZNK6google8protobuf11StringPiece4findEcm(ptr noundef nonnull align 8 dereferenceable(16) %0, i8 noundef signext %1, i64 noundef %2) #2 align 2 {
  %4 = alloca i64, align 8
  %5 = alloca ptr, align 8
  %6 = alloca i8, align 1
  %7 = alloca i64, align 8
  %8 = alloca ptr, align 8
  store ptr %0, ptr %5, align 8, !tbaa !8
  store i8 %1, ptr %6, align 1, !tbaa !28
  store i64 %2, ptr %7, align 8, !tbaa !15
  %9 = load ptr, ptr %5, align 8
  %10 = getelementptr inbounds nuw %"class.google::protobuf::StringPiece", ptr %9, i32 0, i32 1
  %11 = load i64, ptr %10, align 8, !tbaa !14
  %12 = icmp sle i64 %11, 0
  br i1 %12, label %18, label %13

13:                                               ; preds = %3
  %14 = load i64, ptr %7, align 8, !tbaa !15
  %15 = getelementptr inbounds nuw %"class.google::protobuf::StringPiece", ptr %9, i32 0, i32 1
  %16 = load i64, ptr %15, align 8, !tbaa !14
  %17 = icmp uge i64 %14, %16
  br i1 %17, label %18, label %19

18:                                               ; preds = %13, %3
  store i64 -1, ptr %4, align 8
  br label %43

19:                                               ; preds = %13
  call void @llvm.lifetime.start.p0(i64 8, ptr %8) #13
  %20 = getelementptr inbounds nuw %"class.google::protobuf::StringPiece", ptr %9, i32 0, i32 0
  %21 = load ptr, ptr %20, align 8, !tbaa !10
  %22 = load i64, ptr %7, align 8, !tbaa !15
  %23 = getelementptr inbounds nuw i8, ptr %21, i64 %22
  %24 = load i8, ptr %6, align 1, !tbaa !28
  %25 = sext i8 %24 to i32
  %26 = getelementptr inbounds nuw %"class.google::protobuf::StringPiece", ptr %9, i32 0, i32 1
  %27 = load i64, ptr %26, align 8, !tbaa !14
  %28 = load i64, ptr %7, align 8, !tbaa !15
  %29 = sub i64 %27, %28
  %30 = call noundef ptr @memchr(ptr noundef %23, i32 noundef %25, i64 noundef %29) #14
  store ptr %30, ptr %8, align 8, !tbaa !16
  %31 = load ptr, ptr %8, align 8, !tbaa !16
  %32 = icmp ne ptr %31, null
  br i1 %32, label %33, label %40

33:                                               ; preds = %19
  %34 = load ptr, ptr %8, align 8, !tbaa !16
  %35 = getelementptr inbounds nuw %"class.google::protobuf::StringPiece", ptr %9, i32 0, i32 0
  %36 = load ptr, ptr %35, align 8, !tbaa !10
  %37 = ptrtoint ptr %34 to i64
  %38 = ptrtoint ptr %36 to i64
  %39 = sub i64 %37, %38
  br label %41

40:                                               ; preds = %19
  br label %41

41:                                               ; preds = %40, %33
  %42 = phi i64 [ %39, %33 ], [ -1, %40 ]
  store i64 %42, ptr %4, align 8
  call void @llvm.lifetime.end.p0(i64 8, ptr %8) #13
  br label %43

43:                                               ; preds = %41, %18
  %44 = load i64, ptr %4, align 8
  ret i64 %44
}