; Function Attrs: mustprogress nofree nounwind willreturn memory(read, inaccessiblemem: none) uwtable
define noundef i64 @_ZNK6google8protobuf11StringPiece4findEcm(ptr noundef nonnull readonly align 8 captures(none) dereferenceable(16) %0, i8 noundef signext %1, i64 noundef %2) local_unnamed_addr #8 align 2 {
  %4 = getelementptr inbounds nuw i8, ptr %0, i64 8
  %5 = load i64, ptr %4, align 8, !tbaa !10
  %6 = icmp sgt i64 %5, 0
  %.not = icmp ult i64 %2, %5
  %or.cond = and i1 %6, %.not
  br i1 %or.cond, label %7, label %17

7:                                                ; preds = %3
  %8 = load ptr, ptr %0, align 8, !tbaa !3
  %9 = getelementptr inbounds nuw i8, ptr %8, i64 %2
  %10 = sext i8 %1 to i32
  %11 = sub nuw nsw i64 %5, %2
  %12 = tail call noundef ptr @memchr(ptr noundef %9, i32 noundef %10, i64 noundef %11) #18
  %.not10 = icmp eq ptr %12, null
  %13 = ptrtoint ptr %12 to i64
  %14 = ptrtoint ptr %8 to i64
  %15 = sub i64 %13, %14
  %16 = select i1 %.not10, i64 -1, i64 %15
  br label %17

17:                                               ; preds = %3, %7
  %.0 = phi i64 [ %16, %7 ], [ -1, %3 ]
  ret i64 %.0
}